; Function Attrs: mustprogress uwtable
define void @_ZN10MainWindow22pasteViewFromClipboardEv(ptr noundef nonnull align 8 dereferenceable(1376) %0) local_unnamed_addr #9 align 2 {
  %2 = getelementptr inbounds i8, ptr %0, i64 1368
  %3 = load ptr, ptr %2, align 8
  %.not.i = icmp eq ptr %3, null
  br i1 %.not.i, label %_ZNK10MainWindow3GLAEv.exit.thread, label %_ZNK10MainWindow3GLAEv.exit

_ZNK10MainWindow3GLAEv.exit:                      ; preds = %1
  %4 = getelementptr inbounds i8, ptr %3, i64 256
  %5 = load ptr, ptr %4, align 8
  %.not = icmp eq ptr %5, null
  br i1 %.not, label %_ZNK10MainWindow3GLAEv.exit.thread, label %_ZNK10MainWindow3GLAEv.exit3

_ZNK10MainWindow3GLAEv.exit3:                     ; preds = %_ZNK10MainWindow3GLAEv.exit
  tail call void @_ZN6GLArea17viewFromClipboardEv(ptr noundef nonnull align 8 dereferenceable(1676) %5)
  br label %_ZNK10MainWindow3GLAEv.exit.thread

_ZNK10MainWindow3GLAEv.exit.thread:               ; preds = %1, %_ZNK10MainWindow3GLAEv.exit3, %_ZNK10MainWindow3GLAEv.exit
  tail call void @_ZN10MainWindow11updateMenusEv(ptr noundef nonnull align 8 dereferenceable(1376) %0)
  ret void
}